target datalayout = "e-m:e-p270:32:32-p271:32:32-p272:64:64-i64:64-i128:128-f80:128-n8:16:32:64-S128"
target triple = "x86_64-pc-linux-gnu"

; Function Attrs: nounwind uwtable
define internal void @aderivative_fltp(ptr noundef %0, ptr noundef %1, ptr noundef %2, i32 noundef %3, i32 noundef %4) #1 {
  %6 = alloca ptr, align 8
  %7 = alloca ptr, align 8
  %8 = alloca ptr, align 8
  %9 = alloca i32, align 4
  %10 = alloca i32, align 4
  %11 = alloca i32, align 4
  %12 = alloca i32, align 4
  %13 = alloca ptr, align 8
  %14 = alloca ptr, align 8
  %15 = alloca ptr, align 8
  %16 = alloca float, align 4
  store ptr %0, ptr %6, align 8, !tbaa !54
  store ptr %1, ptr %7, align 8, !tbaa !54
  store ptr %2, ptr %8, align 8, !tbaa !54
  store i32 %3, ptr %9, align 4, !tbaa !55
  store i32 %4, ptr %10, align 4, !tbaa !55
  call void @llvm.lifetime.start.p0(i64 4, ptr %11) #5
  call void @llvm.lifetime.start.p0(i64 4, ptr %12) #5
  store i32 0, ptr %12, align 4, !tbaa !55
  br label %17

17:                                               ; preds = %63, %5
  %18 = load i32, ptr %12, align 4, !tbaa !55
  %19 = load i32, ptr %10, align 4, !tbaa !55
  %20 = icmp slt i32 %18, %19
  br i1 %20, label %21, label %66

21:                                               ; preds = %17
  call void @llvm.lifetime.start.p0(i64 8, ptr %13) #5
  %22 = load ptr, ptr %8, align 8, !tbaa !54
  %23 = load i32, ptr %12, align 4, !tbaa !55
  %24 = sext i32 %23 to i64
  %25 = getelementptr inbounds ptr, ptr %22, i64 %24
  %26 = load ptr, ptr %25, align 8, !tbaa !56
  store ptr %26, ptr %13, align 8, !tbaa !57
  call void @llvm.lifetime.start.p0(i64 8, ptr %14) #5
  %27 = load ptr, ptr %6, align 8, !tbaa !54
  %28 = load i32, ptr %12, align 4, !tbaa !55
  %29 = sext i32 %28 to i64
  %30 = getelementptr inbounds ptr, ptr %27, i64 %29
  %31 = load ptr, ptr %30, align 8, !tbaa !56
  store ptr %31, ptr %14, align 8, !tbaa !57
  call void @llvm.lifetime.start.p0(i64 8, ptr %15) #5
  %32 = load ptr, ptr %7, align 8, !tbaa !54
  %33 = load i32, ptr %12, align 4, !tbaa !55
  %34 = sext i32 %33 to i64
  %35 = getelementptr inbounds ptr, ptr %32, i64 %34
  %36 = load ptr, ptr %35, align 8, !tbaa !56
  store ptr %36, ptr %15, align 8, !tbaa !57
  store i32 0, ptr %11, align 4, !tbaa !55
  br label %37

37:                                               ; preds = %59, %21
  %38 = load i32, ptr %11, align 4, !tbaa !55
  %39 = load i32, ptr %9, align 4, !tbaa !55
  %40 = icmp slt i32 %38, %39
  br i1 %40, label %41, label %62

41:                                               ; preds = %37
  call void @llvm.lifetime.start.p0(i64 4, ptr %16) #5
  %42 = load ptr, ptr %13, align 8, !tbaa !57
  %43 = load i32, ptr %11, align 4, !tbaa !55
  %44 = sext i32 %43 to i64
  %45 = getelementptr inbounds float, ptr %42, i64 %44
  %46 = load float, ptr %45, align 4, !tbaa !59
  store float %46, ptr %16, align 4, !tbaa !59
  %47 = load float, ptr %16, align 4, !tbaa !59
  %48 = load ptr, ptr %15, align 8, !tbaa !57
  %49 = getelementptr inbounds float, ptr %48, i64 0
  %50 = load float, ptr %49, align 4, !tbaa !59
  %51 = fsub nsz float %47, %50
  %52 = load ptr, ptr %14, align 8, !tbaa !57
  %53 = load i32, ptr %11, align 4, !tbaa !55
  %54 = sext i32 %53 to i64
  %55 = getelementptr inbounds float, ptr %52, i64 %54
  store float %51, ptr %55, align 4, !tbaa !59
  %56 = load float, ptr %16, align 4, !tbaa !59
  %57 = load ptr, ptr %15, align 8, !tbaa !57
  %58 = getelementptr inbounds float, ptr %57, i64 0
  store float %56, ptr %58, align 4, !tbaa !59
  call void @llvm.lifetime.end.p0(i64 4, ptr %16) #5
  br label %59

59:                                               ; preds = %41
  %60 = load i32, ptr %11, align 4, !tbaa !55
  %61 = add nsw i32 %60, 1
  store i32 %61, ptr %11, align 4, !tbaa !55
  br label %37, !llvm.loop !61

62:                                               ; preds = %37
  call void @llvm.lifetime.end.p0(i64 8, ptr %15) #5
  call void @llvm.lifetime.end.p0(i64 8, ptr %14) #5
  call void @llvm.lifetime.end.p0(i64 8, ptr %13) #5
  br label %63

63:                                               ; preds = %62
  %64 = load i32, ptr %12, align 4, !tbaa !55
  %65 = add nsw i32 %64, 1
  store i32 %65, ptr %12, align 4, !tbaa !55
  br label %17, !llvm.loop !63

66:                                               ; preds = %17
  call void @llvm.lifetime.end.p0(i64 4, ptr %12) #5
  call void @llvm.lifetime.end.p0(i64 4, ptr %11) #5
  ret void
}